target datalayout = "e-m:e-p270:32:32-p271:32:32-p272:64:64-i64:64-i128:128-f80:128-n8:16:32:64-S128"
target triple = "x86_64-pc-linux-gnu"

%struct.ML_KEM_VINFO = type { ptr, i64, i64, i64, i64, i64, i64, i64, i32, i32, i32, i32, i32, i32 }
%struct.ossl_ml_kem_key_st = type { ptr, ptr, ptr, ptr, ptr, ptr, ptr, ptr, ptr, ptr, ptr, ptr, ptr, i32, i32, [64 x i8], ptr }
%struct.ossl_ml_kem_scalar_st = type { [256 x i16] }

@.str = private unnamed_addr constant [34 x i8] c"../openssl/crypto/ml_kem/ml_kem.c\00", align 1

; Function Attrs: nounwind uwtable
define internal i32 @add_storage(ptr noundef %0, i32 noundef %1, ptr noundef %2) #0 {
  %4 = alloca i32, align 4
  %5 = alloca ptr, align 8
  %6 = alloca i32, align 4
  %7 = alloca ptr, align 8
  %8 = alloca i32, align 4
  %9 = alloca i32, align 4
  store ptr %0, ptr %5, align 8, !tbaa !40
  store i32 %1, ptr %6, align 4, !tbaa !23
  store ptr %2, ptr %7, align 8, !tbaa !3
  call void @llvm.lifetime.start.p0(i64 4, ptr %8) #8
  %10 = load ptr, ptr %7, align 8, !tbaa !3
  %11 = getelementptr inbounds nuw %struct.ossl_ml_kem_key_st, ptr %10, i32 0, i32 0
  %12 = load ptr, ptr %11, align 8, !tbaa !16
  %13 = getelementptr inbounds nuw %struct.ML_KEM_VINFO, ptr %12, i32 0, i32 10
  %14 = load i32, ptr %13, align 8, !tbaa !41
  store i32 %14, ptr %8, align 4, !tbaa !23
  %15 = load ptr, ptr %5, align 8, !tbaa !40
  %16 = icmp eq ptr %15, null
  br i1 %16, label %17, label %18

17:                                               ; preds = %3
  store i32 0, ptr %4, align 4
  store i32 1, ptr %9, align 4
  br label %64

18:                                               ; preds = %3
  %19 = load ptr, ptr %7, align 8, !tbaa !3
  %20 = getelementptr inbounds nuw %struct.ossl_ml_kem_key_st, ptr %19, i32 0, i32 15
  %21 = getelementptr inbounds [64 x i8], ptr %20, i64 0, i64 0
  call void @llvm.memset.p0.i64(ptr align 8 %21, i8 0, i64 64, i1 false)
  %22 = load ptr, ptr %7, align 8, !tbaa !3
  %23 = getelementptr inbounds nuw %struct.ossl_ml_kem_key_st, ptr %22, i32 0, i32 15
  %24 = getelementptr inbounds [64 x i8], ptr %23, i64 0, i64 0
  %25 = load ptr, ptr %7, align 8, !tbaa !3
  %26 = getelementptr inbounds nuw %struct.ossl_ml_kem_key_st, ptr %25, i32 0, i32 6
  store ptr %24, ptr %26, align 8, !tbaa !36
  %27 = load ptr, ptr %7, align 8, !tbaa !3
  %28 = getelementptr inbounds nuw %struct.ossl_ml_kem_key_st, ptr %27, i32 0, i32 15
  %29 = getelementptr inbounds [64 x i8], ptr %28, i64 0, i64 0
  %30 = getelementptr inbounds i8, ptr %29, i64 32
  %31 = load ptr, ptr %7, align 8, !tbaa !3
  %32 = getelementptr inbounds nuw %struct.ossl_ml_kem_key_st, ptr %31, i32 0, i32 7
  store ptr %30, ptr %32, align 8, !tbaa !35
  %33 = load ptr, ptr %7, align 8, !tbaa !3
  %34 = getelementptr inbounds nuw %struct.ossl_ml_kem_key_st, ptr %33, i32 0, i32 11
  store ptr null, ptr %34, align 8, !tbaa !21
  %35 = load ptr, ptr %7, align 8, !tbaa !3
  %36 = getelementptr inbounds nuw %struct.ossl_ml_kem_key_st, ptr %35, i32 0, i32 12
  store ptr null, ptr %36, align 8, !tbaa !22
  %37 = load ptr, ptr %5, align 8, !tbaa !40
  %38 = load ptr, ptr %7, align 8, !tbaa !3
  %39 = getelementptr inbounds nuw %struct.ossl_ml_kem_key_st, ptr %38, i32 0, i32 8
  store ptr %37, ptr %39, align 8, !tbaa !8
  %40 = load i32, ptr %8, align 4, !tbaa !23
  %41 = sext i32 %40 to i64
  %42 = getelementptr inbounds %struct.ossl_ml_kem_scalar_st, ptr %37, i64 %41
  %43 = load ptr, ptr %7, align 8, !tbaa !3
  %44 = getelementptr inbounds nuw %struct.ossl_ml_kem_key_st, ptr %43, i32 0, i32 9
  store ptr %42, ptr %44, align 8, !tbaa !20
  %45 = load i32, ptr %6, align 4, !tbaa !23
  %46 = icmp ne i32 %45, 0
  br i1 %46, label %47, label %63

47:                                               ; preds = %18
  %48 = load i32, ptr %8, align 4, !tbaa !23
  %49 = load ptr, ptr %7, align 8, !tbaa !3
  %50 = getelementptr inbounds nuw %struct.ossl_ml_kem_key_st, ptr %49, i32 0, i32 9
  %51 = load ptr, ptr %50, align 8, !tbaa !20
  %52 = load i32, ptr %8, align 4, !tbaa !23
  %53 = load i32, ptr %8, align 4, !tbaa !23
  %54 = mul nsw i32 %52, %53
  %55 = sext i32 %54 to i64
  %56 = getelementptr inbounds %struct.ossl_ml_kem_scalar_st, ptr %51, i64 %55
  %57 = load ptr, ptr %7, align 8, !tbaa !3
  %58 = getelementptr inbounds nuw %struct.ossl_ml_kem_key_st, ptr %57, i32 0, i32 10
  store ptr %56, ptr %58, align 8, !tbaa !15
  %59 = sext i32 %48 to i64
  %60 = getelementptr inbounds %struct.ossl_ml_kem_scalar_st, ptr %56, i64 %59
  %61 = load ptr, ptr %7, align 8, !tbaa !3
  %62 = getelementptr inbounds nuw %struct.ossl_ml_kem_key_st, ptr %61, i32 0, i32 11
  store ptr %60, ptr %62, align 8, !tbaa !21
  br label %63

63:                                               ; preds = %47, %18
  store i32 1, ptr %4, align 4
  store i32 1, ptr %9, align 4
  br label %64

64:                                               ; preds = %63, %17
  call void @llvm.lifetime.end.p0(i64 4, ptr %8) #8
  %65 = load i32, ptr %4, align 4
  ret i32 %65
}

; Function Attrs: nounwind uwtable
define i32 @ossl_ml_kem_parse_public_key(ptr noundef %0, i64 noundef %1, ptr noundef %2) #0 {
  %4 = alloca i32, align 4
  %5 = alloca ptr, align 8
  %6 = alloca i64, align 8
  %7 = alloca ptr, align 8
  %8 = alloca ptr, align 8
  %9 = alloca ptr, align 8
  %10 = alloca i32, align 4
  %11 = alloca i32, align 4
  store ptr %0, ptr %5, align 8, !tbaa !25
  store i64 %1, ptr %6, align 8, !tbaa !42
  store ptr %2, ptr %7, align 8, !tbaa !3
  call void @llvm.lifetime.start.p0(i64 8, ptr %8) #8
  store ptr null, ptr %8, align 8, !tbaa !44
  call void @llvm.lifetime.start.p0(i64 8, ptr %9) #8
  call void @llvm.lifetime.start.p0(i64 4, ptr %10) #8
  store i32 0, ptr %10, align 4, !tbaa !23
  %12 = load ptr, ptr %7, align 8, !tbaa !3
  %13 = icmp eq ptr %12, null
  br i1 %13, label %24, label %14

14:                                               ; preds = %3
  %15 = load ptr, ptr %7, align 8, !tbaa !3
  %16 = getelementptr inbounds nuw %struct.ossl_ml_kem_key_st, ptr %15, i32 0, i32 8
  %17 = load ptr, ptr %16, align 8, !tbaa !8
  %18 = icmp ne ptr %17, null
  br i1 %18, label %24, label %19

19:                                               ; preds = %14
  %20 = load ptr, ptr %7, align 8, !tbaa !3
  %21 = getelementptr inbounds nuw %struct.ossl_ml_kem_key_st, ptr %20, i32 0, i32 16
  %22 = load ptr, ptr %21, align 8, !tbaa !34
  %23 = icmp ne ptr %22, null
  br i1 %23, label %24, label %25

24:                                               ; preds = %19, %14, %3
  store i32 0, ptr %4, align 4
  store i32 1, ptr %11, align 4
  br label %59

25:                                               ; preds = %19
  %26 = load ptr, ptr %7, align 8, !tbaa !3
  %27 = getelementptr inbounds nuw %struct.ossl_ml_kem_key_st, ptr %26, i32 0, i32 0
  %28 = load ptr, ptr %27, align 8, !tbaa !16
  store ptr %28, ptr %9, align 8, !tbaa !26
  %29 = load i64, ptr %6, align 8, !tbaa !42
  %30 = load ptr, ptr %9, align 8, !tbaa !26
  %31 = getelementptr inbounds nuw %struct.ML_KEM_VINFO, ptr %30, i32 0, i32 3
  %32 = load i64, ptr %31, align 8, !tbaa !43
  %33 = icmp ne i64 %29, %32
  br i1 %33, label %37, label %34

34:                                               ; preds = %25
  %35 = call ptr @EVP_MD_CTX_new()
  store ptr %35, ptr %8, align 8, !tbaa !44
  %36 = icmp eq ptr %35, null
  br i1 %36, label %37, label %38

37:                                               ; preds = %34, %25
  store i32 0, ptr %4, align 4
  store i32 1, ptr %11, align 4
  br label %59

38:                                               ; preds = %34
  %39 = load ptr, ptr %9, align 8, !tbaa !26
  %40 = getelementptr inbounds nuw %struct.ML_KEM_VINFO, ptr %39, i32 0, i32 4
  %41 = load i64, ptr %40, align 8, !tbaa !38
  %42 = call noalias ptr @CRYPTO_malloc(i64 noundef %41, ptr noundef @.str, i32 noundef 1770)
  %43 = load ptr, ptr %7, align 8, !tbaa !3
  %44 = call i32 @add_storage(ptr noundef %42, i32 noundef 0, ptr noundef %43)
  %45 = icmp ne i32 %44, 0
  br i1 %45, label %46, label %51

46:                                               ; preds = %38
  %47 = load ptr, ptr %5, align 8, !tbaa !25
  %48 = load ptr, ptr %8, align 8, !tbaa !44
  %49 = load ptr, ptr %7, align 8, !tbaa !3
  %50 = call i32 @parse_pubkey(ptr noundef %47, ptr noundef %48, ptr noundef %49)
  store i32 %50, ptr %10, align 4, !tbaa !23
  br label %51

51:                                               ; preds = %46, %38
  %52 = load i32, ptr %10, align 4, !tbaa !23
  %53 = icmp ne i32 %52, 0
  br i1 %53, label %56, label %54

54:                                               ; preds = %51
  %55 = load ptr, ptr %7, align 8, !tbaa !3
  call void @ossl_ml_kem_key_reset(ptr noundef %55)
  br label %56

56:                                               ; preds = %54, %51
  %57 = load ptr, ptr %8, align 8, !tbaa !44
  call void @EVP_MD_CTX_free(ptr noundef %57)
  %58 = load i32, ptr %10, align 4, !tbaa !23
  store i32 %58, ptr %4, align 4
  store i32 1, ptr %11, align 4
  br label %59

59:                                               ; preds = %56, %37, %24
  call void @llvm.lifetime.end.p0(i64 4, ptr %10) #8
  call void @llvm.lifetime.end.p0(i64 8, ptr %9) #8
  call void @llvm.lifetime.end.p0(i64 8, ptr %8) #8
  %60 = load i32, ptr %4, align 4
  ret i32 %60
}